; Function Attrs: mustprogress nofree norecurse nosync nounwind willreturn memory(read, inaccessiblemem: none) uwtable
define hidden noundef zeroext i1 @_ZNK4cvc58internal7Integer15fitsUnsignedIntEv(ptr noundef nonnull readonly align 8 captures(none) dereferenceable(16) %0) local_unnamed_addr #5 align 2 {
  %2 = getelementptr inbounds nuw i8, ptr %0, i64 4
  %3 = load i32, ptr %2, align 4, !tbaa !11
  switch i32 %3, label %.fold.split.i.i [
    i32 0, label %_ZNK10__gmp_exprIA1_12__mpz_structS1_E11fits_uint_pEv.exit
    i32 1, label %4
  ]

4:                                                ; preds = %1
  %5 = getelementptr inbounds nuw i8, ptr %0, i64 8
  %6 = load ptr, ptr %5, align 8, !tbaa !17
  %7 = load i64, ptr %6, align 8, !tbaa !18
  %8 = icmp ult i64 %7, 4294967296
  br label %_ZNK10__gmp_exprIA1_12__mpz_structS1_E11fits_uint_pEv.exit

.fold.split.i.i:                                  ; preds = %1
  br label %_ZNK10__gmp_exprIA1_12__mpz_structS1_E11fits_uint_pEv.exit

_ZNK10__gmp_exprIA1_12__mpz_structS1_E11fits_uint_pEv.exit: ; preds = %1, %4, %.fold.split.i.i
  %9 = phi i1 [ true, %1 ], [ %8, %4 ], [ false, %.fold.split.i.i ]
  ret i1 %9
}